target datalayout = "e-m:e-p270:32:32-p271:32:32-p272:64:64-i64:64-i128:128-f80:128-n8:16:32:64-S128"
target triple = "x86_64-pc-linux-gnu"

%class.RecursiveMutex = type <{ %class.Semaphore, ptr, i32, [4 x i8] }>
%class.Semaphore = type { %class.PosixSemaphore }
%class.PosixSemaphore = type { %union.sem_t }
%union.sem_t = type { i64, [24 x i8] }

; Function Attrs: mustprogress nounwind uwtable
define linkonce_odr hidden void @_ZN9Semaphore4waitEv(ptr noundef nonnull align 8 dereferenceable(32) %0) #1 comdat align 2 {
  %2 = alloca ptr, align 8
  store ptr %0, ptr %2, align 8
  %3 = load ptr, ptr %2, align 8
  %4 = getelementptr inbounds %class.Semaphore, ptr %3, i32 0, i32 0
  call void @_ZN14PosixSemaphore4waitEv(ptr noundef nonnull align 8 dereferenceable(32) %4)
  ret void
}

; Function Attrs: mustprogress nounwind uwtable
define linkonce_odr hidden noundef ptr @_ZN10JavaThread4castEP6Thread(ptr noundef %0) #1 comdat align 2 {
  %2 = alloca ptr, align 8
  store ptr %0, ptr %2, align 8
  %3 = load ptr, ptr %2, align 8
  ret ptr %3
}

; Function Attrs: mustprogress nounwind uwtable
define hidden void @_ZN14RecursiveMutex4lockEP6Thread(ptr noundef nonnull align 8 dereferenceable(44) %0, ptr noundef %1) #1 align 2 {
  %3 = alloca ptr, align 8
  %4 = alloca ptr, align 8
  store ptr %0, ptr %3, align 8
  store ptr %1, ptr %4, align 8
  %5 = load ptr, ptr %3, align 8
  %6 = load ptr, ptr %4, align 8
  %7 = getelementptr inbounds %class.RecursiveMutex, ptr %5, i32 0, i32 1
  %8 = load ptr, ptr %7, align 8
  %9 = icmp eq ptr %6, %8
  br i1 %9, label %10, label %14

10:                                               ; preds = %2
  %11 = getelementptr inbounds %class.RecursiveMutex, ptr %5, i32 0, i32 2
  %12 = load i32, ptr %11, align 8
  %13 = add nsw i32 %12, 1
  store i32 %13, ptr %11, align 8
  br label %32

14:                                               ; preds = %2
  %15 = load ptr, ptr %4, align 8
  %16 = load ptr, ptr %15, align 8
  %17 = getelementptr inbounds ptr, ptr %16, i64 7
  %18 = load ptr, ptr %17, align 8
  %19 = call noundef zeroext i1 %18(ptr noundef nonnull align 8 dereferenceable(888) %15)
  br i1 %19, label %20, label %24

20:                                               ; preds = %14
  %21 = getelementptr inbounds %class.RecursiveMutex, ptr %5, i32 0, i32 0
  %22 = load ptr, ptr %4, align 8
  %23 = call noundef ptr @_ZN10JavaThread4castEP6Thread(ptr noundef %22)
  call void @_ZN9Semaphore25wait_with_safepoint_checkEP10JavaThread(ptr noundef nonnull align 8 dereferenceable(32) %21, ptr noundef %23)
  br label %26

24:                                               ; preds = %14
  %25 = getelementptr inbounds %class.RecursiveMutex, ptr %5, i32 0, i32 0
  call void @_ZN9Semaphore4waitEv(ptr noundef nonnull align 8 dereferenceable(32) %25)
  br label %26

26:                                               ; preds = %24, %20
  %27 = getelementptr inbounds %class.RecursiveMutex, ptr %5, i32 0, i32 2
  %28 = load i32, ptr %27, align 8
  %29 = add nsw i32 %28, 1
  store i32 %29, ptr %27, align 8
  %30 = load ptr, ptr %4, align 8
  %31 = getelementptr inbounds %class.RecursiveMutex, ptr %5, i32 0, i32 1
  store ptr %30, ptr %31, align 8
  br label %32

32:                                               ; preds = %26, %10
  ret void
}