; Function Attrs: mustprogress nounwind uwtable
define hidden void @_ZN14RecursiveMutex4lockEP6Thread(ptr noundef nonnull align 8 dereferenceable(44) %0, ptr noundef %1) local_unnamed_addr #0 align 2 {
  %3 = getelementptr inbounds i8, ptr %0, i64 32
  %4 = load ptr, ptr %3, align 8
  %5 = icmp eq ptr %4, %1
  br i1 %5, label %6, label %10

6:                                                ; preds = %2
  %7 = getelementptr inbounds i8, ptr %0, i64 40
  %8 = load i32, ptr %7, align 8
  %9 = add nsw i32 %8, 1
  store i32 %9, ptr %7, align 8
  br label %21

10:                                               ; preds = %2
  %11 = load ptr, ptr %1, align 8
  %12 = getelementptr inbounds i8, ptr %11, i64 56
  %13 = load ptr, ptr %12, align 8
  %14 = tail call noundef zeroext i1 %13(ptr noundef nonnull align 8 dereferenceable(888) %1) #7
  br i1 %14, label %15, label %16

15:                                               ; preds = %10
  tail call void @_ZN9Semaphore25wait_with_safepoint_checkEP10JavaThread(ptr noundef nonnull align 8 dereferenceable(32) %0, ptr noundef nonnull %1)
  br label %17

16:                                               ; preds = %10
  tail call void @_ZN14PosixSemaphore4waitEv(ptr noundef nonnull align 8 dereferenceable(32) %0) #7
  br label %17

17:                                               ; preds = %16, %15
  %18 = getelementptr inbounds i8, ptr %0, i64 40
  %19 = load i32, ptr %18, align 8
  %20 = add nsw i32 %19, 1
  store i32 %20, ptr %18, align 8
  store ptr %1, ptr %3, align 8
  br label %21

21:                                               ; preds = %17, %6
  ret void
}